; Function Attrs: mustprogress uwtable
define hidden i32 @_ZN8intblast6solver11internalizeEP4exprbb(ptr noundef nonnull align 8 dereferenceable(420) %0, ptr noundef %1, i1 noundef zeroext %2, i1 noundef zeroext %3) unnamed_addr #3 align 2 {
  %5 = getelementptr inbounds nuw i8, ptr %0, i64 104
  %6 = load i32, ptr %5, align 8, !tbaa !442
  %.not1.i = icmp eq i32 %6, 0
  br i1 %.not1.i, label %_ZN3euf13th_euf_solver10force_pushEv.exit, label %.lr.ph.i

.lr.ph.i:                                         ; preds = %4, %.lr.ph.i
  %7 = load ptr, ptr %0, align 8, !tbaa !10
  %8 = getelementptr inbounds nuw i8, ptr %7, i64 512
  %9 = load ptr, ptr %8, align 8
  tail call void %9(ptr noundef nonnull align 8 dereferenceable(108) %0)
  %10 = load i32, ptr %5, align 8, !tbaa !442
  %11 = add i32 %10, -1
  store i32 %11, ptr %5, align 8, !tbaa !442
  %.not.i = icmp eq i32 %11, 0
  br i1 %.not.i, label %_ZN3euf13th_euf_solver10force_pushEv.exit, label %.lr.ph.i, !llvm.loop !443

_ZN3euf13th_euf_solver10force_pushEv.exit:        ; preds = %.lr.ph.i, %4
  %12 = getelementptr inbounds nuw i8, ptr %0, i64 48
  %13 = getelementptr inbounds nuw i8, ptr %0, i64 128
  %14 = load ptr, ptr %13, align 8, !tbaa !406
  %15 = tail call noundef zeroext i1 @_ZN3euf15th_internalizer9visit_recER11ast_managerP4exprbb(ptr noundef nonnull align 8 dereferenceable(24) %12, ptr noundef nonnull align 8 dereferenceable(976) %14, ptr noundef %1, i1 noundef zeroext %2, i1 noundef zeroext %3)
  br i1 %15, label %16, label %19

16:                                               ; preds = %_ZN3euf13th_euf_solver10force_pushEv.exit
  %17 = tail call i32 @_ZNK3euf13th_euf_solver12expr2literalEP4expr(ptr noundef nonnull align 8 dereferenceable(108) %0, ptr noundef %1)
  %18 = zext i1 %2 to i32
  %spec.select = xor i32 %17, %18
  br label %19

19:                                               ; preds = %16, %_ZN3euf13th_euf_solver10force_pushEv.exit
  %.sroa.0.0 = phi i32 [ -2, %_ZN3euf13th_euf_solver10force_pushEv.exit ], [ %spec.select, %16 ]
  ret i32 %.sroa.0.0
}